target datalayout = "e-m:e-p270:32:32-p271:32:32-p272:64:64-i64:64-i128:128-f80:128-n8:16:32:64-S128"
target triple = "x86_64-unknown-linux-gnu"

%class.btBvhTriangleMeshShape = type <{ %class.btTriangleMeshShape, ptr, ptr, i8, i8, [11 x i8], [3 x i8] }>
%class.btTriangleMeshShape = type { %class.btConcaveShape.base, %class.btVector3, %class.btVector3, ptr }
%class.btConcaveShape.base = type <{ %class.btCollisionShape, float }>
%class.btCollisionShape = type { ptr, i32, ptr, i32, i32 }
%class.btVector3 = type { [4 x float] }

; Function Attrs: mustprogress nounwind uwtable
define linkonce_odr dso_local void @_Z8btSetMaxIfEvRT_RKS0_(ptr noundef nonnull align 4 dereferenceable(4) %a, ptr noundef nonnull align 4 dereferenceable(4) %b) #1 comdat {
entry:
  %a.addr = alloca ptr, align 8
  %b.addr = alloca ptr, align 8
  store ptr %a, ptr %a.addr, align 8
  store ptr %b, ptr %b.addr, align 8
  %0 = load ptr, ptr %a.addr, align 8
  %1 = load float, ptr %0, align 4
  %2 = load ptr, ptr %b.addr, align 8
  %3 = load float, ptr %2, align 4
  %cmp = fcmp olt float %1, %3
  br i1 %cmp, label %if.then, label %if.end

if.then:                                          ; preds = %entry
  %4 = load ptr, ptr %b.addr, align 8
  %5 = load float, ptr %4, align 4
  %6 = load ptr, ptr %a.addr, align 8
  store float %5, ptr %6, align 4
  br label %if.end

if.end:                                           ; preds = %if.then, %entry
  ret void
}

; Function Attrs: mustprogress nounwind uwtable
define linkonce_odr dso_local noundef nonnull align 4 dereferenceable(4) ptr @_ZNK9btVector31wEv(ptr noundef nonnull align 4 dereferenceable(16) %this) #1 comdat align 2 {
entry:
  %this.addr = alloca ptr, align 8
  store ptr %this, ptr %this.addr, align 8
  %this1 = load ptr, ptr %this.addr, align 8
  %m_floats = getelementptr inbounds %class.btVector3, ptr %this1, i32 0, i32 0
  %arrayidx = getelementptr inbounds [4 x float], ptr %m_floats, i64 0, i64 3
  ret ptr %arrayidx
}

; Function Attrs: mustprogress nounwind uwtable
define linkonce_odr dso_local void @_Z8btSetMinIfEvRT_RKS0_(ptr noundef nonnull align 4 dereferenceable(4) %a, ptr noundef nonnull align 4 dereferenceable(4) %b) #1 comdat {
entry:
  %a.addr = alloca ptr, align 8
  %b.addr = alloca ptr, align 8
  store ptr %a, ptr %a.addr, align 8
  store ptr %b, ptr %b.addr, align 8
  %0 = load ptr, ptr %b.addr, align 8
  %1 = load float, ptr %0, align 4
  %2 = load ptr, ptr %a.addr, align 8
  %3 = load float, ptr %2, align 4
  %cmp = fcmp olt float %1, %3
  br i1 %cmp, label %if.then, label %if.end

if.then:                                          ; preds = %entry
  %4 = load ptr, ptr %b.addr, align 8
  %5 = load float, ptr %4, align 4
  %6 = load ptr, ptr %a.addr, align 8
  store float %5, ptr %6, align 4
  br label %if.end

if.end:                                           ; preds = %if.then, %entry
  ret void
}

; Function Attrs: mustprogress uwtable
define linkonce_odr dso_local void @_ZN9btVector36setMaxERKS_(ptr noundef nonnull align 4 dereferenceable(16) %this, ptr noundef nonnull align 4 dereferenceable(16) %other) #2 comdat align 2 {
entry:
  %this.addr = alloca ptr, align 8
  %other.addr = alloca ptr, align 8
  store ptr %this, ptr %this.addr, align 8
  store ptr %other, ptr %other.addr, align 8
  %this1 = load ptr, ptr %this.addr, align 8
  %m_floats = getelementptr inbounds %class.btVector3, ptr %this1, i32 0, i32 0
  %arrayidx = getelementptr inbounds [4 x float], ptr %m_floats, i64 0, i64 0
  %0 = load ptr, ptr %other.addr, align 8
  %m_floats2 = getelementptr inbounds %class.btVector3, ptr %0, i32 0, i32 0
  %arrayidx3 = getelementptr inbounds [4 x float], ptr %m_floats2, i64 0, i64 0
  call void @_Z8btSetMaxIfEvRT_RKS0_(ptr noundef nonnull align 4 dereferenceable(4) %arrayidx, ptr noundef nonnull align 4 dereferenceable(4) %arrayidx3)
  %m_floats4 = getelementptr inbounds %class.btVector3, ptr %this1, i32 0, i32 0
  %arrayidx5 = getelementptr inbounds [4 x float], ptr %m_floats4, i64 0, i64 1
  %1 = load ptr, ptr %other.addr, align 8
  %m_floats6 = getelementptr inbounds %class.btVector3, ptr %1, i32 0, i32 0
  %arrayidx7 = getelementptr inbounds [4 x float], ptr %m_floats6, i64 0, i64 1
  call void @_Z8btSetMaxIfEvRT_RKS0_(ptr noundef nonnull align 4 dereferenceable(4) %arrayidx5, ptr noundef nonnull align 4 dereferenceable(4) %arrayidx7)
  %m_floats8 = getelementptr inbounds %class.btVector3, ptr %this1, i32 0, i32 0
  %arrayidx9 = getelementptr inbounds [4 x float], ptr %m_floats8, i64 0, i64 2
  %2 = load ptr, ptr %other.addr, align 8
  %m_floats10 = getelementptr inbounds %class.btVector3, ptr %2, i32 0, i32 0
  %arrayidx11 = getelementptr inbounds [4 x float], ptr %m_floats10, i64 0, i64 2
  call void @_Z8btSetMaxIfEvRT_RKS0_(ptr noundef nonnull align 4 dereferenceable(4) %arrayidx9, ptr noundef nonnull align 4 dereferenceable(4) %arrayidx11)
  %m_floats12 = getelementptr inbounds %class.btVector3, ptr %this1, i32 0, i32 0
  %arrayidx13 = getelementptr inbounds [4 x float], ptr %m_floats12, i64 0, i64 3
  %3 = load ptr, ptr %other.addr, align 8
  %call = call noundef nonnull align 4 dereferenceable(4) ptr @_ZNK9btVector31wEv(ptr noundef nonnull align 4 dereferenceable(16) %3)
  call void @_Z8btSetMaxIfEvRT_RKS0_(ptr noundef nonnull align 4 dereferenceable(4) %arrayidx13, ptr noundef nonnull align 4 dereferenceable(4) %call)
  ret void
}

; Function Attrs: mustprogress uwtable
define linkonce_odr dso_local void @_ZN9btVector36setMinERKS_(ptr noundef nonnull align 4 dereferenceable(16) %this, ptr noundef nonnull align 4 dereferenceable(16) %other) #2 comdat align 2 {
entry:
  %this.addr = alloca ptr, align 8
  %other.addr = alloca ptr, align 8
  store ptr %this, ptr %this.addr, align 8
  store ptr %other, ptr %other.addr, align 8
  %this1 = load ptr, ptr %this.addr, align 8
  %m_floats = getelementptr inbounds %class.btVector3, ptr %this1, i32 0, i32 0
  %arrayidx = getelementptr inbounds [4 x float], ptr %m_floats, i64 0, i64 0
  %0 = load ptr, ptr %other.addr, align 8
  %m_floats2 = getelementptr inbounds %class.btVector3, ptr %0, i32 0, i32 0
  %arrayidx3 = getelementptr inbounds [4 x float], ptr %m_floats2, i64 0, i64 0
  call void @_Z8btSetMinIfEvRT_RKS0_(ptr noundef nonnull align 4 dereferenceable(4) %arrayidx, ptr noundef nonnull align 4 dereferenceable(4) %arrayidx3)
  %m_floats4 = getelementptr inbounds %class.btVector3, ptr %this1, i32 0, i32 0
  %arrayidx5 = getelementptr inbounds [4 x float], ptr %m_floats4, i64 0, i64 1
  %1 = load ptr, ptr %other.addr, align 8
  %m_floats6 = getelementptr inbounds %class.btVector3, ptr %1, i32 0, i32 0
  %arrayidx7 = getelementptr inbounds [4 x float], ptr %m_floats6, i64 0, i64 1
  call void @_Z8btSetMinIfEvRT_RKS0_(ptr noundef nonnull align 4 dereferenceable(4) %arrayidx5, ptr noundef nonnull align 4 dereferenceable(4) %arrayidx7)
  %m_floats8 = getelementptr inbounds %class.btVector3, ptr %this1, i32 0, i32 0
  %arrayidx9 = getelementptr inbounds [4 x float], ptr %m_floats8, i64 0, i64 2
  %2 = load ptr, ptr %other.addr, align 8
  %m_floats10 = getelementptr inbounds %class.btVector3, ptr %2, i32 0, i32 0
  %arrayidx11 = getelementptr inbounds [4 x float], ptr %m_floats10, i64 0, i64 2
  call void @_Z8btSetMinIfEvRT_RKS0_(ptr noundef nonnull align 4 dereferenceable(4) %arrayidx9, ptr noundef nonnull align 4 dereferenceable(4) %arrayidx11)
  %m_floats12 = getelementptr inbounds %class.btVector3, ptr %this1, i32 0, i32 0
  %arrayidx13 = getelementptr inbounds [4 x float], ptr %m_floats12, i64 0, i64 3
  %3 = load ptr, ptr %other.addr, align 8
  %call = call noundef nonnull align 4 dereferenceable(4) ptr @_ZNK9btVector31wEv(ptr noundef nonnull align 4 dereferenceable(16) %3)
  call void @_Z8btSetMinIfEvRT_RKS0_(ptr noundef nonnull align 4 dereferenceable(4) %arrayidx13, ptr noundef nonnull align 4 dereferenceable(4) %call)
  ret void
}

; Function Attrs: mustprogress uwtable
define dso_local void @_ZN22btBvhTriangleMeshShape16partialRefitTreeERK9btVector3S2_(ptr noundef nonnull align 8 dereferenceable(109) %this, ptr noundef nonnull align 4 dereferenceable(16) %aabbMin, ptr noundef nonnull align 4 dereferenceable(16) %aabbMax) #2 align 2 {
entry:
  %this.addr = alloca ptr, align 8
  %aabbMin.addr = alloca ptr, align 8
  %aabbMax.addr = alloca ptr, align 8
  store ptr %this, ptr %this.addr, align 8
  store ptr %aabbMin, ptr %aabbMin.addr, align 8
  store ptr %aabbMax, ptr %aabbMax.addr, align 8
  %this1 = load ptr, ptr %this.addr, align 8
  %m_bvh = getelementptr inbounds %class.btBvhTriangleMeshShape, ptr %this1, i32 0, i32 1
  %0 = load ptr, ptr %m_bvh, align 8
  %m_meshInterface = getelementptr inbounds %class.btTriangleMeshShape, ptr %this1, i32 0, i32 3
  %1 = load ptr, ptr %m_meshInterface, align 8
  %2 = load ptr, ptr %aabbMin.addr, align 8
  %3 = load ptr, ptr %aabbMax.addr, align 8
  call void @_ZN14btOptimizedBvh12refitPartialEP23btStridingMeshInterfaceRK9btVector3S4_(ptr noundef nonnull align 8 dereferenceable(244) %0, ptr noundef %1, ptr noundef nonnull align 4 dereferenceable(16) %2, ptr noundef nonnull align 4 dereferenceable(16) %3)
  %m_localAabbMin = getelementptr inbounds %class.btTriangleMeshShape, ptr %this1, i32 0, i32 1
  %4 = load ptr, ptr %aabbMin.addr, align 8
  call void @_ZN9btVector36setMinERKS_(ptr noundef nonnull align 4 dereferenceable(16) %m_localAabbMin, ptr noundef nonnull align 4 dereferenceable(16) %4)
  %m_localAabbMax = getelementptr inbounds %class.btTriangleMeshShape, ptr %this1, i32 0, i32 2
  %5 = load ptr, ptr %aabbMax.addr, align 8
  call void @_ZN9btVector36setMaxERKS_(ptr noundef nonnull align 4 dereferenceable(16) %m_localAabbMax, ptr noundef nonnull align 4 dereferenceable(16) %5)
  ret void
}