; Function Attrs: mustprogress uwtable
define dso_local void @_ZN22btBvhTriangleMeshShape16partialRefitTreeERK9btVector3S2_(ptr nocapture noundef nonnull align 8 dereferenceable(109) %this, ptr noundef nonnull align 4 dereferenceable(16) %aabbMin, ptr noundef nonnull align 4 dereferenceable(16) %aabbMax) local_unnamed_addr #0 align 2 {
entry:
  %m_bvh = getelementptr inbounds i8, ptr %this, i64 80
  %0 = load ptr, ptr %m_bvh, align 8
  %m_meshInterface = getelementptr inbounds i8, ptr %this, i64 72
  %1 = load ptr, ptr %m_meshInterface, align 8
  tail call void @_ZN14btOptimizedBvh12refitPartialEP23btStridingMeshInterfaceRK9btVector3S4_(ptr noundef nonnull align 8 dereferenceable(244) %0, ptr noundef %1, ptr noundef nonnull align 4 dereferenceable(16) %aabbMin, ptr noundef nonnull align 4 dereferenceable(16) %aabbMax)
  %m_localAabbMin = getelementptr inbounds i8, ptr %this, i64 36
  %2 = load float, ptr %aabbMin, align 4
  %3 = load float, ptr %m_localAabbMin, align 4
  %cmp.i.i = fcmp olt float %2, %3
  br i1 %cmp.i.i, label %if.then.i.i, label %_Z8btSetMinIfEvRT_RKS0_.exit.i

if.then.i.i:                                      ; preds = %entry
  store float %2, ptr %m_localAabbMin, align 4
  br label %_Z8btSetMinIfEvRT_RKS0_.exit.i

_Z8btSetMinIfEvRT_RKS0_.exit.i:                   ; preds = %if.then.i.i, %entry
  %arrayidx5.i = getelementptr inbounds i8, ptr %this, i64 40
  %arrayidx7.i = getelementptr inbounds i8, ptr %aabbMin, i64 4
  %4 = load float, ptr %arrayidx7.i, align 4
  %5 = load float, ptr %arrayidx5.i, align 8
  %cmp.i4.i = fcmp olt float %4, %5
  br i1 %cmp.i4.i, label %if.then.i5.i, label %_Z8btSetMinIfEvRT_RKS0_.exit6.i

if.then.i5.i:                                     ; preds = %_Z8btSetMinIfEvRT_RKS0_.exit.i
  store float %4, ptr %arrayidx5.i, align 8
  br label %_Z8btSetMinIfEvRT_RKS0_.exit6.i

_Z8btSetMinIfEvRT_RKS0_.exit6.i:                  ; preds = %if.then.i5.i, %_Z8btSetMinIfEvRT_RKS0_.exit.i
  %arrayidx9.i = getelementptr inbounds i8, ptr %this, i64 44
  %arrayidx11.i = getelementptr inbounds i8, ptr %aabbMin, i64 8
  %6 = load float, ptr %arrayidx11.i, align 4
  %7 = load float, ptr %arrayidx9.i, align 4
  %cmp.i7.i = fcmp olt float %6, %7
  br i1 %cmp.i7.i, label %if.then.i8.i, label %_Z8btSetMinIfEvRT_RKS0_.exit9.i

if.then.i8.i:                                     ; preds = %_Z8btSetMinIfEvRT_RKS0_.exit6.i
  store float %6, ptr %arrayidx9.i, align 4
  br label %_Z8btSetMinIfEvRT_RKS0_.exit9.i

_Z8btSetMinIfEvRT_RKS0_.exit9.i:                  ; preds = %if.then.i8.i, %_Z8btSetMinIfEvRT_RKS0_.exit6.i
  %arrayidx13.i = getelementptr inbounds i8, ptr %this, i64 48
  %arrayidx.i.i = getelementptr inbounds i8, ptr %aabbMin, i64 12
  %8 = load float, ptr %arrayidx.i.i, align 4
  %9 = load float, ptr %arrayidx13.i, align 8
  %cmp.i10.i = fcmp olt float %8, %9
  br i1 %cmp.i10.i, label %if.then.i11.i, label %_ZN9btVector36setMinERKS_.exit

if.then.i11.i:                                    ; preds = %_Z8btSetMinIfEvRT_RKS0_.exit9.i
  store float %8, ptr %arrayidx13.i, align 8
  br label %_ZN9btVector36setMinERKS_.exit

_ZN9btVector36setMinERKS_.exit:                   ; preds = %_Z8btSetMinIfEvRT_RKS0_.exit9.i, %if.then.i11.i
  %m_localAabbMax = getelementptr inbounds i8, ptr %this, i64 52
  %10 = load float, ptr %m_localAabbMax, align 4
  %11 = load float, ptr %aabbMax, align 4
  %cmp.i.i3 = fcmp olt float %10, %11
  br i1 %cmp.i.i3, label %if.then.i.i16, label %_Z8btSetMaxIfEvRT_RKS0_.exit.i

if.then.i.i16:                                    ; preds = %_ZN9btVector36setMinERKS_.exit
  store float %11, ptr %m_localAabbMax, align 4
  br label %_Z8btSetMaxIfEvRT_RKS0_.exit.i

_Z8btSetMaxIfEvRT_RKS0_.exit.i:                   ; preds = %if.then.i.i16, %_ZN9btVector36setMinERKS_.exit
  %arrayidx5.i4 = getelementptr inbounds i8, ptr %this, i64 56
  %arrayidx7.i5 = getelementptr inbounds i8, ptr %aabbMax, i64 4
  %12 = load float, ptr %arrayidx5.i4, align 8
  %13 = load float, ptr %arrayidx7.i5, align 4
  %cmp.i4.i6 = fcmp olt float %12, %13
  br i1 %cmp.i4.i6, label %if.then.i5.i15, label %_Z8btSetMaxIfEvRT_RKS0_.exit6.i

if.then.i5.i15:                                   ; preds = %_Z8btSetMaxIfEvRT_RKS0_.exit.i
  store float %13, ptr %arrayidx5.i4, align 8
  br label %_Z8btSetMaxIfEvRT_RKS0_.exit6.i

_Z8btSetMaxIfEvRT_RKS0_.exit6.i:                  ; preds = %if.then.i5.i15, %_Z8btSetMaxIfEvRT_RKS0_.exit.i
  %arrayidx9.i7 = getelementptr inbounds i8, ptr %this, i64 60
  %arrayidx11.i8 = getelementptr inbounds i8, ptr %aabbMax, i64 8
  %14 = load float, ptr %arrayidx9.i7, align 4
  %15 = load float, ptr %arrayidx11.i8, align 4
  %cmp.i7.i9 = fcmp olt float %14, %15
  br i1 %cmp.i7.i9, label %if.then.i8.i14, label %_Z8btSetMaxIfEvRT_RKS0_.exit9.i

if.then.i8.i14:                                   ; preds = %_Z8btSetMaxIfEvRT_RKS0_.exit6.i
  store float %15, ptr %arrayidx9.i7, align 4
  br label %_Z8btSetMaxIfEvRT_RKS0_.exit9.i

_Z8btSetMaxIfEvRT_RKS0_.exit9.i:                  ; preds = %if.then.i8.i14, %_Z8btSetMaxIfEvRT_RKS0_.exit6.i
  %arrayidx13.i10 = getelementptr inbounds i8, ptr %this, i64 64
  %arrayidx.i.i11 = getelementptr inbounds i8, ptr %aabbMax, i64 12
  %16 = load float, ptr %arrayidx13.i10, align 8
  %17 = load float, ptr %arrayidx.i.i11, align 4
  %cmp.i10.i12 = fcmp olt float %16, %17
  br i1 %cmp.i10.i12, label %if.then.i11.i13, label %_ZN9btVector36setMaxERKS_.exit

if.then.i11.i13:                                  ; preds = %_Z8btSetMaxIfEvRT_RKS0_.exit9.i
  store float %17, ptr %arrayidx13.i10, align 8
  br label %_ZN9btVector36setMaxERKS_.exit

_ZN9btVector36setMaxERKS_.exit:                   ; preds = %_Z8btSetMaxIfEvRT_RKS0_.exit9.i, %if.then.i11.i13
  ret void
}